target datalayout = "e-m:e-p270:32:32-p271:32:32-p272:64:64-i64:64-i128:128-f80:128-n8:16:32:64-S128"
target triple = "x86_64-pc-linux-gnu"

; Function Attrs: mustprogress norecurse uwtable
define dso_local noundef i32 @main() #0 {
  %1 = alloca i32, align 4
  %2 = alloca <4 x float>, align 16
  %3 = alloca <4 x float>, align 16
  store i32 0, ptr %1, align 4
  call void @llvm.lifetime.start.p0(i64 16, ptr %2) #3
  call void @llvm.lifetime.start.p0(i64 16, ptr %3) #3
  %4 = call noundef <4 x float> @_ZL11_mm_set1_psf(float noundef 0.000000e+00)
  store <4 x float> %4, ptr %2, align 16, !tbaa !4
  %5 = load <4 x float>, ptr %2, align 16, !tbaa !4
  %6 = call noundef <4 x float> @_ZL15_mm_moveldup_psDv4_f(<4 x float> noundef %5)
  store <4 x float> %6, ptr %3, align 16, !tbaa !4
  call void @llvm.lifetime.end.p0(i64 16, ptr %3) #3
  call void @llvm.lifetime.end.p0(i64 16, ptr %2) #3
  ret i32 0
}

; Function Attrs: nocallback nofree nosync nounwind willreturn memory(argmem: readwrite)
declare void @llvm.lifetime.start.p0(i64 immarg, ptr captures(none)) #1

; Function Attrs: alwaysinline mustprogress nounwind uwtable
define internal noundef <4 x float> @_ZL11_mm_set1_psf(float noundef %0) #2 {
  %2 = alloca float, align 4
  %3 = alloca <4 x float>, align 16
  store float %0, ptr %2, align 4, !tbaa !7
  %4 = load float, ptr %2, align 4, !tbaa !7
  %5 = insertelement <4 x float> poison, float %4, i32 0
  %6 = load float, ptr %2, align 4, !tbaa !7
  %7 = insertelement <4 x float> %5, float %6, i32 1
  %8 = load float, ptr %2, align 4, !tbaa !7
  %9 = insertelement <4 x float> %7, float %8, i32 2
  %10 = load float, ptr %2, align 4, !tbaa !7
  %11 = insertelement <4 x float> %9, float %10, i32 3
  store <4 x float> %11, ptr %3, align 16, !tbaa !4
  %12 = load <4 x float>, ptr %3, align 16, !tbaa !4
  ret <4 x float> %12
}

; Function Attrs: alwaysinline mustprogress nounwind uwtable
define internal noundef <4 x float> @_ZL15_mm_moveldup_psDv4_f(<4 x float> noundef %0) #2 {
  %2 = alloca <4 x float>, align 16
  store <4 x float> %0, ptr %2, align 16, !tbaa !4
  %3 = load <4 x float>, ptr %2, align 16, !tbaa !4
  %4 = load <4 x float>, ptr %2, align 16, !tbaa !4
  %5 = shufflevector <4 x float> %3, <4 x float> %4, <4 x i32> <i32 0, i32 0, i32 2, i32 2>
  ret <4 x float> %5
}

; Function Attrs: nocallback nofree nosync nounwind willreturn memory(argmem: readwrite)
declare void @llvm.lifetime.end.p0(i64 immarg, ptr captures(none)) #1


!llvm.module.flags = !{!0, !1, !2, !3}

!0 = !{i32 1, !"wchar_size", i32 4}
!1 = !{i32 8, !"PIC Level", i32 2}
!2 = !{i32 7, !"PIE Level", i32 2}
!3 = !{i32 7, !"uwtable", i32 2}
!4 = !{!5, !5, i64 0}
!5 = !{!"omnipotent char", !6, i64 0}
!6 = !{!"Simple C++ TBAA"}
!7 = !{!8, !8, i64 0}
!8 = !{!"float", !5, i64 0}
